target datalayout = "e-m:e-p270:32:32-p271:32:32-p272:64:64-i64:64-i128:128-f80:128-n8:16:32:64-S128"
target triple = "x86_64-pc-linux-gnu"

%struct.StreamContext = type { i32, i32, i64, i32, ptr, i32, i32, i32, ptr }

; Function Attrs: nounwind uwtable
define i64 @ff_lsb2full(ptr noundef %0, i64 noundef %1) #0 {
  %3 = alloca ptr, align 8
  %4 = alloca i64, align 8
  %5 = alloca i64, align 8
  %6 = alloca i64, align 8
  store ptr %0, ptr %3, align 8, !tbaa !45
  store i64 %1, ptr %4, align 8, !tbaa !9
  call void @llvm.lifetime.start.p0(i64 8, ptr %5) #4
  %7 = load ptr, ptr %3, align 8, !tbaa !45
  %8 = getelementptr inbounds nuw %struct.StreamContext, ptr %7, i32 0, i32 5
  %9 = load i32, ptr %8, align 8, !tbaa !46
  %10 = zext i32 %9 to i64
  %11 = shl i64 1, %10
  %12 = sub i64 %11, 1
  store i64 %12, ptr %5, align 8, !tbaa !9
  call void @llvm.lifetime.start.p0(i64 8, ptr %6) #4
  %13 = load ptr, ptr %3, align 8, !tbaa !45
  %14 = getelementptr inbounds nuw %struct.StreamContext, ptr %13, i32 0, i32 2
  %15 = load i64, ptr %14, align 8, !tbaa !42
  %16 = load i64, ptr %5, align 8, !tbaa !9
  %17 = sdiv i64 %16, 2
  %18 = sub nsw i64 %15, %17
  store i64 %18, ptr %6, align 8, !tbaa !9
  %19 = load i64, ptr %4, align 8, !tbaa !9
  %20 = load i64, ptr %6, align 8, !tbaa !9
  %21 = sub nsw i64 %19, %20
  %22 = load i64, ptr %5, align 8, !tbaa !9
  %23 = and i64 %21, %22
  %24 = load i64, ptr %6, align 8, !tbaa !9
  %25 = add nsw i64 %23, %24
  call void @llvm.lifetime.end.p0(i64 8, ptr %6) #4
  call void @llvm.lifetime.end.p0(i64 8, ptr %5) #4
  ret i64 %25
}