; Function Attrs: mustprogress nofree norecurse nosync nounwind willreturn memory(argmem: read) uwtable
define i64 @ff_lsb2full(ptr noundef readonly captures(none) %0, i64 noundef %1) local_unnamed_addr #3 {
  %3 = getelementptr inbounds nuw i8, ptr %0, i64 32
  %4 = load i32, ptr %3, align 8, !tbaa !41
  %5 = zext nneg i32 %4 to i64
  %notmask = shl nsw i64 -1, %5
  %6 = xor i64 %notmask, -1
  %7 = getelementptr inbounds nuw i8, ptr %0, i64 8
  %8 = load i64, ptr %7, align 8, !tbaa !38
  %9 = lshr i64 %6, 1
  %10 = sub nsw i64 %8, %9
  %11 = sub nsw i64 %1, %10
  %12 = and i64 %11, %6
  %13 = add nsw i64 %12, %10
  ret i64 %13
}